target datalayout = "e-m:e-p270:32:32-p271:32:32-p272:64:64-i64:64-i128:128-f80:128-n8:16:32:64-S128"
target triple = "x86_64-pc-linux-gnu"

%struct.connectdata = type { %struct.Curl_llist_node, ptr, ptr, i64, ptr, i64, ptr, ptr, %struct.hostname, ptr, ptr, %struct.hostname, %struct.proxy_info, %struct.proxy_info, %struct.ip_quadruple, %struct.ip_quadruple, ptr, ptr, ptr, ptr, ptr, %struct.curltime, %struct.curltime, %struct.curltime, [2 x i32], [2 x ptr], [2 x ptr], [2 x ptr], %struct.anon, %struct.easy_pollset, %struct.ssl_primary_config, %struct.ssl_primary_config, %struct.ConnectBits, ptr, ptr, %struct.curltime, i32, i32, %struct.Curl_llist, i32, i32, %struct.ntlmdata, %struct.ntlmdata, %union.anon.1, ptr, ptr, i16, i32, i32, i32, i32, i16, i16, i8, i8, i8, i8, i8, i8, i8 }
%struct.Curl_llist_node = type { ptr, ptr, ptr, ptr }
%struct.hostname = type { ptr, ptr, ptr, ptr }
%struct.proxy_info = type { %struct.hostname, i32, i8, ptr, ptr }
%struct.ip_quadruple = type { [46 x i8], [46 x i8], i32, i32 }
%struct.anon = type { [2 x %struct.curltime], i32 }
%struct.easy_pollset = type { [5 x i32], i32, [5 x i8] }
%struct.ssl_primary_config = type { ptr, ptr, ptr, ptr, ptr, ptr, ptr, ptr, ptr, ptr, ptr, ptr, ptr, ptr, i8, i32, i8, i8 }
%struct.ConnectBits = type { i64 }
%struct.curltime = type { i64, i32 }
%struct.Curl_llist = type { ptr, ptr, ptr, i64 }
%struct.ntlmdata = type { i32, [8 x i8], i32, ptr }
%union.anon.1 = type { %struct.ftp_conn }
%struct.ftp_conn = type { %struct.pingpong, ptr, ptr, ptr, ptr, ptr, ptr, ptr, i8, i64, ptr, i64, i32, i32, i32, i32, i32, i16, i8, i8, i8, i8, i8 }
%struct.pingpong = type { i64, i8, ptr, i64, i64, %struct.curltime, i64, %struct.dynbuf, %struct.dynbuf, i64, i64, ptr, ptr }
%struct.dynbuf = type { ptr, i64, i64, i64 }
%struct.Curl_easy = type { i32, i64, i64, ptr, %struct.Curl_llist_node, %struct.Curl_llist_node, i32, i32, %struct.Curl_message, %struct.easy_pollset, %struct.Names, ptr, ptr, ptr, ptr, %struct.SingleRequest, %struct.UserDefined, ptr, ptr, ptr, %struct.Progress, %struct.UrlState, ptr, %struct.PureInfo, %struct.curl_tlssessioninfo }
%struct.Curl_message = type { %struct.Curl_llist_node, %struct.CURLMsg }
%struct.CURLMsg = type { i32, ptr, %union.anon }
%union.anon = type { ptr }
%struct.Names = type { ptr, i32 }
%struct.SingleRequest = type <{ i64, i64, i64, i64, %struct.curltime, i32, i32, i32, i32, i64, i32, i32, i8, i8, [2 x i8], i32, ptr, ptr, %struct.bufq, i64, i64, ptr, ptr, %union.anon.0, ptr, i8, i32, [3 x i8] }>
%struct.bufq = type { ptr, ptr, ptr, ptr, i64, i64, i64, i32 }
%union.anon.0 = type { ptr }
%struct.UserDefined = type <{ ptr, ptr, ptr, ptr, ptr, ptr, i64, i64, i64, ptr, ptr, i64, ptr, ptr, ptr, ptr, ptr, ptr, ptr, ptr, ptr, ptr, ptr, ptr, ptr, ptr, ptr, ptr, ptr, ptr, ptr, ptr, ptr, ptr, ptr, i64, i64, i64, i64, i64, i64, i64, i64, i64, ptr, ptr, %struct.curl_mimepart, ptr, ptr, ptr, i64, %struct.ssl_config_data, %struct.ssl_config_data, ptr, i16, i8, i8, %struct.ssl_general_config, i32, i32, i32, [4 x i8], ptr, ptr, i64, i32, i8, i8, i8, i8, ptr, ptr, ptr, i32, [4 x i8], [74 x ptr], [8 x ptr], i32, i32, i32, [4 x i8], ptr, i32, [4 x i8], ptr, ptr, ptr, ptr, ptr, i32, i32, i32, i32, i32, i32, i32, i32, i64, ptr, ptr, i64, ptr, i64, ptr, ptr, ptr, ptr, i32, i16, i16, i16, i8, i8, i8, i8, i8, i8, i8, i8, i64, [6 x i8] }>
%struct.curl_mimepart = type { ptr, ptr, i32, i32, ptr, ptr, ptr, ptr, ptr, ptr, ptr, ptr, ptr, ptr, ptr, i64, %struct.mime_state, ptr, %struct.mime_encoder_state, i64 }
%struct.mime_state = type { i32, ptr, i64 }
%struct.mime_encoder_state = type { i64, i64, i64, [256 x i8] }
%struct.ssl_config_data = type { %struct.ssl_primary_config, i64, ptr, ptr, ptr, ptr, ptr, ptr, ptr, i16 }
%struct.ssl_general_config = type { i32 }
%struct.Progress = type { i64, %struct.pgrs_dir, %struct.pgrs_dir, i64, i64, i32, i32, i64, i64, i64, i64, i64, i64, i64, i64, i64, %struct.curltime, %struct.curltime, %struct.curltime, %struct.curltime, %struct.curltime, [6 x i64], [6 x %struct.curltime], i32, i8 }
%struct.pgrs_dir = type { i64, i64, i64, %struct.pgrs_measure }
%struct.pgrs_measure = type { %struct.curltime, i64 }
%struct.UrlState = type { %struct.curltime, i64, i64, %struct.dynbuf, ptr, i64, ptr, i32, i32, i32, ptr, i32, i64, i32, ptr, %struct.digestdata, %struct.digestdata, %struct.auth, %struct.auth, %struct.Curl_async, ptr, i8, %struct.curltime, %struct.Curl_tree, %struct.Curl_llist, [15 x %struct.time_node], ptr, ptr, i64, i64, i64, i64, [32 x i8], i64, ptr, ptr, ptr, %struct.urlpieces, ptr, ptr, ptr, ptr, ptr, i64, %struct.dynbuf, %struct.Curl_llist, [2 x %struct.curl_header], ptr, i32, ptr, ptr, %struct.store_netrc, %struct.dynamically_allocated_data, i8, i8, i8, i8, i32 }
%struct.digestdata = type { ptr, ptr, ptr, ptr, ptr, ptr, i32, i8, i8 }
%struct.auth = type { i64, i64, i64, i8 }
%struct.Curl_async = type { ptr, ptr, ptr, ptr, i32, i32, i8 }
%struct.Curl_tree = type { ptr, ptr, ptr, ptr, %struct.curltime, ptr }
%struct.time_node = type { %struct.Curl_llist_node, %struct.curltime, i32 }
%struct.urlpieces = type { ptr, ptr, ptr, ptr, ptr, ptr, ptr, ptr }
%struct.curl_header = type { ptr, ptr, i64, i64, i32, ptr }
%struct.store_netrc = type { %struct.dynbuf, ptr, i8 }
%struct.dynamically_allocated_data = type { ptr, ptr, ptr, ptr, ptr, ptr, ptr, ptr, ptr, ptr, ptr, ptr, ptr, ptr }
%struct.PureInfo = type { i32, i32, i32, i64, i64, i64, i64, i64, i64, i64, ptr, ptr, i64, i32, %struct.ip_quadruple, i32, ptr, i32, %struct.curl_certinfo, i32, i8 }
%struct.curl_certinfo = type { i32, ptr }
%struct.curl_tlssessioninfo = type { i32, ptr }
%struct.IMAP = type { i32, ptr, ptr, ptr, ptr, ptr, ptr, ptr, ptr, ptr }
%struct.imap_conn = type { %struct.pingpong, %struct.SASL, %struct.dynbuf, ptr, ptr, i32, [5 x i8], i8, i8, i8 }
%struct.SASL = type { ptr, i32, ptr, i16, i16, i16, i8 }

@.str.15 = private unnamed_addr constant [1 x i8] zeroinitializer, align 1
@Curl_cfree = external global ptr, align 8
@.str.56 = private unnamed_addr constant [3 x i8] c"%s\00", align 1

; Function Attrs: nounwind uwtable
define internal void @imap_state(ptr noundef %0, i32 noundef %1) #0 {
  %3 = alloca ptr, align 8
  %4 = alloca i32, align 4
  %5 = alloca ptr, align 8
  store ptr %0, ptr %3, align 8, !tbaa !3
  store i32 %1, ptr %4, align 4, !tbaa !10
  call void @llvm.lifetime.start.p0(i64 8, ptr %5) #6
  %6 = load ptr, ptr %3, align 8, !tbaa !3
  %7 = getelementptr inbounds nuw %struct.Curl_easy, ptr %6, i32 0, i32 3
  %8 = load ptr, ptr %7, align 8, !tbaa !16
  %9 = getelementptr inbounds nuw %struct.connectdata, ptr %8, i32 0, i32 43
  store ptr %9, ptr %5, align 8, !tbaa !99
  %10 = load i32, ptr %4, align 4, !tbaa !10
  %11 = load ptr, ptr %5, align 8, !tbaa !99
  %12 = getelementptr inbounds nuw %struct.imap_conn, ptr %11, i32 0, i32 5
  store i32 %10, ptr %12, align 8, !tbaa !113
  call void @llvm.lifetime.end.p0(i64 8, ptr %5) #6
  ret void
}

; Function Attrs: nounwind uwtable
define internal i32 @imap_done(ptr noundef %0, i32 noundef %1, i1 noundef zeroext %2) #0 {
  %4 = alloca i32, align 4
  %5 = alloca ptr, align 8
  %6 = alloca i32, align 4
  %7 = alloca i8, align 1
  %8 = alloca i32, align 4
  %9 = alloca ptr, align 8
  %10 = alloca ptr, align 8
  %11 = alloca i32, align 4
  store ptr %0, ptr %5, align 8, !tbaa !3
  store i32 %1, ptr %6, align 4, !tbaa !10
  %12 = zext i1 %2 to i8
  store i8 %12, ptr %7, align 1, !tbaa !14
  call void @llvm.lifetime.start.p0(i64 4, ptr %8) #6
  store i32 0, ptr %8, align 4, !tbaa !10
  call void @llvm.lifetime.start.p0(i64 8, ptr %9) #6
  %13 = load ptr, ptr %5, align 8, !tbaa !3
  %14 = getelementptr inbounds nuw %struct.Curl_easy, ptr %13, i32 0, i32 3
  %15 = load ptr, ptr %14, align 8, !tbaa !16
  store ptr %15, ptr %9, align 8, !tbaa !8
  call void @llvm.lifetime.start.p0(i64 8, ptr %10) #6
  %16 = load ptr, ptr %5, align 8, !tbaa !3
  %17 = getelementptr inbounds nuw %struct.Curl_easy, ptr %16, i32 0, i32 15
  %18 = getelementptr inbounds nuw %struct.SingleRequest, ptr %17, i32 0, i32 23
  %19 = load ptr, ptr %18, align 8, !tbaa !83
  store ptr %19, ptr %10, align 8, !tbaa !84
  %20 = load ptr, ptr %10, align 8, !tbaa !84
  %21 = icmp ne ptr %20, null
  br i1 %21, label %23, label %22

22:                                               ; preds = %3
  store i32 0, ptr %4, align 4
  store i32 1, ptr %11, align 4
  br label %189

23:                                               ; preds = %3
  %24 = load i32, ptr %6, align 4, !tbaa !10
  %25 = icmp ne i32 %24, 0
  br i1 %25, label %26, label %29

26:                                               ; preds = %23
  %27 = load ptr, ptr %9, align 8, !tbaa !8
  call void @Curl_conncontrol(ptr noundef %27, i32 noundef 1)
  %28 = load i32, ptr %6, align 4, !tbaa !10
  store i32 %28, ptr %8, align 4, !tbaa !10
  br label %104

29:                                               ; preds = %23
  %30 = load ptr, ptr %5, align 8, !tbaa !3
  %31 = getelementptr inbounds nuw %struct.Curl_easy, ptr %30, i32 0, i32 16
  %32 = getelementptr inbounds nuw %struct.UserDefined, ptr %31, i32 0, i32 119
  %33 = load i64, ptr %32, align 2
  %34 = and i64 %33, 1
  %35 = trunc i64 %34 to i32
  %36 = icmp ne i32 %35, 0
  br i1 %36, label %103, label %37

37:                                               ; preds = %29
  %38 = load ptr, ptr %10, align 8, !tbaa !84
  %39 = getelementptr inbounds nuw %struct.IMAP, ptr %38, i32 0, i32 8
  %40 = load ptr, ptr %39, align 8, !tbaa !86
  %41 = icmp ne ptr %40, null
  br i1 %41, label %103, label %42

42:                                               ; preds = %37
  %43 = load ptr, ptr %10, align 8, !tbaa !84
  %44 = getelementptr inbounds nuw %struct.IMAP, ptr %43, i32 0, i32 3
  %45 = load ptr, ptr %44, align 8, !tbaa !88
  %46 = icmp ne ptr %45, null
  br i1 %46, label %67, label %47

47:                                               ; preds = %42
  %48 = load ptr, ptr %10, align 8, !tbaa !84
  %49 = getelementptr inbounds nuw %struct.IMAP, ptr %48, i32 0, i32 4
  %50 = load ptr, ptr %49, align 8, !tbaa !89
  %51 = icmp ne ptr %50, null
  br i1 %51, label %67, label %52

52:                                               ; preds = %47
  %53 = load ptr, ptr %5, align 8, !tbaa !3
  %54 = getelementptr inbounds nuw %struct.Curl_easy, ptr %53, i32 0, i32 21
  %55 = getelementptr inbounds nuw %struct.UrlState, ptr %54, i32 0, i32 57
  %56 = load i32, ptr %55, align 4
  %57 = lshr i32 %56, 19
  %58 = and i32 %57, 1
  %59 = icmp ne i32 %58, 0
  br i1 %59, label %67, label %60

60:                                               ; preds = %52
  %61 = load ptr, ptr %5, align 8, !tbaa !3
  %62 = getelementptr inbounds nuw %struct.Curl_easy, ptr %61, i32 0, i32 16
  %63 = getelementptr inbounds nuw %struct.UserDefined, ptr %62, i32 0, i32 46
  %64 = getelementptr inbounds nuw %struct.curl_mimepart, ptr %63, i32 0, i32 2
  %65 = load i32, ptr %64, align 8, !tbaa !90
  %66 = icmp ne i32 %65, 0
  br i1 %66, label %67, label %103

67:                                               ; preds = %60, %52, %47, %42
  %68 = load ptr, ptr %5, align 8, !tbaa !3
  %69 = getelementptr inbounds nuw %struct.Curl_easy, ptr %68, i32 0, i32 21
  %70 = getelementptr inbounds nuw %struct.UrlState, ptr %69, i32 0, i32 57
  %71 = load i32, ptr %70, align 4
  %72 = lshr i32 %71, 19
  %73 = and i32 %72, 1
  %74 = icmp ne i32 %73, 0
  br i1 %74, label %84, label %75

75:                                               ; preds = %67
  %76 = load ptr, ptr %5, align 8, !tbaa !3
  %77 = getelementptr inbounds nuw %struct.Curl_easy, ptr %76, i32 0, i32 16
  %78 = getelementptr inbounds nuw %struct.UserDefined, ptr %77, i32 0, i32 46
  %79 = getelementptr inbounds nuw %struct.curl_mimepart, ptr %78, i32 0, i32 2
  %80 = load i32, ptr %79, align 8, !tbaa !90
  %81 = icmp ne i32 %80, 0
  br i1 %81, label %84, label %82

82:                                               ; preds = %75
  %83 = load ptr, ptr %5, align 8, !tbaa !3
  call void @imap_state(ptr noundef %83, i32 noundef 10)
  br label %95

84:                                               ; preds = %75, %67
  %85 = load ptr, ptr %5, align 8, !tbaa !3
  %86 = load ptr, ptr %9, align 8, !tbaa !8
  %87 = getelementptr inbounds nuw %struct.connectdata, ptr %86, i32 0, i32 43
  %88 = getelementptr inbounds nuw %struct.imap_conn, ptr %87, i32 0, i32 0
  %89 = call i32 (ptr, ptr, ptr, ...) @Curl_pp_sendf(ptr noundef %85, ptr noundef %88, ptr noundef @.str.56, ptr noundef @.str.15)
  store i32 %89, ptr %8, align 4, !tbaa !10
  %90 = load i32, ptr %8, align 4, !tbaa !10
  %91 = icmp ne i32 %90, 0
  br i1 %91, label %94, label %92

92:                                               ; preds = %84
  %93 = load ptr, ptr %5, align 8, !tbaa !3
  call void @imap_state(ptr noundef %93, i32 noundef 12)
  br label %94

94:                                               ; preds = %92, %84
  br label %95

95:                                               ; preds = %94, %82
  %96 = load i32, ptr %8, align 4, !tbaa !10
  %97 = icmp ne i32 %96, 0
  br i1 %97, label %102, label %98

98:                                               ; preds = %95
  %99 = load ptr, ptr %5, align 8, !tbaa !3
  %100 = load ptr, ptr %9, align 8, !tbaa !8
  %101 = call i32 @imap_block_statemach(ptr noundef %99, ptr noundef %100, i1 noundef zeroext false)
  store i32 %101, ptr %8, align 4, !tbaa !10
  br label %102

102:                                              ; preds = %98, %95
  br label %103

103:                                              ; preds = %102, %60, %37, %29
  br label %104

104:                                              ; preds = %103, %26
  br label %105

105:                                              ; preds = %104
  %106 = load ptr, ptr @Curl_cfree, align 8, !tbaa !91
  %107 = load ptr, ptr %10, align 8, !tbaa !84
  %108 = getelementptr inbounds nuw %struct.IMAP, ptr %107, i32 0, i32 1
  %109 = load ptr, ptr %108, align 8, !tbaa !92
  call void %106(ptr noundef %109)
  %110 = load ptr, ptr %10, align 8, !tbaa !84
  %111 = getelementptr inbounds nuw %struct.IMAP, ptr %110, i32 0, i32 1
  store ptr null, ptr %111, align 8, !tbaa !92
  br label %112

112:                                              ; preds = %105
  br label %113

113:                                              ; preds = %112
  br label %114

114:                                              ; preds = %113
  %115 = load ptr, ptr @Curl_cfree, align 8, !tbaa !91
  %116 = load ptr, ptr %10, align 8, !tbaa !84
  %117 = getelementptr inbounds nuw %struct.IMAP, ptr %116, i32 0, i32 2
  %118 = load ptr, ptr %117, align 8, !tbaa !93
  call void %115(ptr noundef %118)
  %119 = load ptr, ptr %10, align 8, !tbaa !84
  %120 = getelementptr inbounds nuw %struct.IMAP, ptr %119, i32 0, i32 2
  store ptr null, ptr %120, align 8, !tbaa !93
  br label %121

121:                                              ; preds = %114
  br label %122

122:                                              ; preds = %121
  br label %123

123:                                              ; preds = %122
  %124 = load ptr, ptr @Curl_cfree, align 8, !tbaa !91
  %125 = load ptr, ptr %10, align 8, !tbaa !84
  %126 = getelementptr inbounds nuw %struct.IMAP, ptr %125, i32 0, i32 3
  %127 = load ptr, ptr %126, align 8, !tbaa !88
  call void %124(ptr noundef %127)
  %128 = load ptr, ptr %10, align 8, !tbaa !84
  %129 = getelementptr inbounds nuw %struct.IMAP, ptr %128, i32 0, i32 3
  store ptr null, ptr %129, align 8, !tbaa !88
  br label %130

130:                                              ; preds = %123
  br label %131

131:                                              ; preds = %130
  br label %132

132:                                              ; preds = %131
  %133 = load ptr, ptr @Curl_cfree, align 8, !tbaa !91
  %134 = load ptr, ptr %10, align 8, !tbaa !84
  %135 = getelementptr inbounds nuw %struct.IMAP, ptr %134, i32 0, i32 4
  %136 = load ptr, ptr %135, align 8, !tbaa !89
  call void %133(ptr noundef %136)
  %137 = load ptr, ptr %10, align 8, !tbaa !84
  %138 = getelementptr inbounds nuw %struct.IMAP, ptr %137, i32 0, i32 4
  store ptr null, ptr %138, align 8, !tbaa !89
  br label %139

139:                                              ; preds = %132
  br label %140

140:                                              ; preds = %139
  br label %141

141:                                              ; preds = %140
  %142 = load ptr, ptr @Curl_cfree, align 8, !tbaa !91
  %143 = load ptr, ptr %10, align 8, !tbaa !84
  %144 = getelementptr inbounds nuw %struct.IMAP, ptr %143, i32 0, i32 5
  %145 = load ptr, ptr %144, align 8, !tbaa !94
  call void %142(ptr noundef %145)
  %146 = load ptr, ptr %10, align 8, !tbaa !84
  %147 = getelementptr inbounds nuw %struct.IMAP, ptr %146, i32 0, i32 5
  store ptr null, ptr %147, align 8, !tbaa !94
  br label %148

148:                                              ; preds = %141
  br label %149

149:                                              ; preds = %148
  br label %150

150:                                              ; preds = %149
  %151 = load ptr, ptr @Curl_cfree, align 8, !tbaa !91
  %152 = load ptr, ptr %10, align 8, !tbaa !84
  %153 = getelementptr inbounds nuw %struct.IMAP, ptr %152, i32 0, i32 6
  %154 = load ptr, ptr %153, align 8, !tbaa !95
  call void %151(ptr noundef %154)
  %155 = load ptr, ptr %10, align 8, !tbaa !84
  %156 = getelementptr inbounds nuw %struct.IMAP, ptr %155, i32 0, i32 6
  store ptr null, ptr %156, align 8, !tbaa !95
  br label %157

157:                                              ; preds = %150
  br label %158

158:                                              ; preds = %157
  br label %159

159:                                              ; preds = %158
  %160 = load ptr, ptr @Curl_cfree, align 8, !tbaa !91
  %161 = load ptr, ptr %10, align 8, !tbaa !84
  %162 = getelementptr inbounds nuw %struct.IMAP, ptr %161, i32 0, i32 7
  %163 = load ptr, ptr %162, align 8, !tbaa !96
  call void %160(ptr noundef %163)
  %164 = load ptr, ptr %10, align 8, !tbaa !84
  %165 = getelementptr inbounds nuw %struct.IMAP, ptr %164, i32 0, i32 7
  store ptr null, ptr %165, align 8, !tbaa !96
  br label %166

166:                                              ; preds = %159
  br label %167

167:                                              ; preds = %166
  br label %168

168:                                              ; preds = %167
  %169 = load ptr, ptr @Curl_cfree, align 8, !tbaa !91
  %170 = load ptr, ptr %10, align 8, !tbaa !84
  %171 = getelementptr inbounds nuw %struct.IMAP, ptr %170, i32 0, i32 8
  %172 = load ptr, ptr %171, align 8, !tbaa !86
  call void %169(ptr noundef %172)
  %173 = load ptr, ptr %10, align 8, !tbaa !84
  %174 = getelementptr inbounds nuw %struct.IMAP, ptr %173, i32 0, i32 8
  store ptr null, ptr %174, align 8, !tbaa !86
  br label %175

175:                                              ; preds = %168
  br label %176

176:                                              ; preds = %175
  br label %177

177:                                              ; preds = %176
  %178 = load ptr, ptr @Curl_cfree, align 8, !tbaa !91
  %179 = load ptr, ptr %10, align 8, !tbaa !84
  %180 = getelementptr inbounds nuw %struct.IMAP, ptr %179, i32 0, i32 9
  %181 = load ptr, ptr %180, align 8, !tbaa !97
  call void %178(ptr noundef %181)
  %182 = load ptr, ptr %10, align 8, !tbaa !84
  %183 = getelementptr inbounds nuw %struct.IMAP, ptr %182, i32 0, i32 9
  store ptr null, ptr %183, align 8, !tbaa !97
  br label %184

184:                                              ; preds = %177
  br label %185

185:                                              ; preds = %184
  %186 = load ptr, ptr %10, align 8, !tbaa !84
  %187 = getelementptr inbounds nuw %struct.IMAP, ptr %186, i32 0, i32 0
  store i32 0, ptr %187, align 8, !tbaa !98
  %188 = load i32, ptr %8, align 4, !tbaa !10
  store i32 %188, ptr %4, align 4
  store i32 1, ptr %11, align 4
  br label %189

189:                                              ; preds = %185, %22
  call void @llvm.lifetime.end.p0(i64 8, ptr %10) #6
  call void @llvm.lifetime.end.p0(i64 8, ptr %9) #6
  call void @llvm.lifetime.end.p0(i64 4, ptr %8) #6
  %190 = load i32, ptr %4, align 4
  ret i32 %190
}