; Function Attrs: nounwind uwtable
define internal i32 @imap_done(ptr noundef %0, i32 noundef %1, i1 zeroext %2) #0 {
  %4 = getelementptr inbounds nuw i8, ptr %0, i64 24
  %5 = load ptr, ptr %4, align 8, !tbaa !98
  %6 = getelementptr inbounds nuw i8, ptr %0, i64 440
  %7 = load ptr, ptr %6, align 8, !tbaa !7
  %.not = icmp eq ptr %7, null
  br i1 %.not, label %72, label %8

8:                                                ; preds = %3
  %.not47 = icmp eq i32 %1, 0
  br i1 %.not47, label %10, label %9

9:                                                ; preds = %8
  tail call void @Curl_conncontrol(ptr noundef %5, i32 noundef 1) #7
  br label %44

10:                                               ; preds = %8
  %11 = getelementptr inbounds nuw i8, ptr %0, i64 2658
  %12 = load i64, ptr %11, align 2
  %13 = and i64 %12, 1
  %.not48 = icmp eq i64 %13, 0
  br i1 %.not48, label %14, label %44

14:                                               ; preds = %10
  %15 = getelementptr inbounds nuw i8, ptr %7, i64 64
  %16 = load ptr, ptr %15, align 8, !tbaa !94
  %.not49 = icmp eq ptr %16, null
  br i1 %.not49, label %17, label %44

17:                                               ; preds = %14
  %18 = getelementptr inbounds nuw i8, ptr %7, i64 24
  %19 = load ptr, ptr %18, align 8, !tbaa !88
  %.not50 = icmp eq ptr %19, null
  br i1 %.not50, label %20, label %30

20:                                               ; preds = %17
  %21 = getelementptr inbounds nuw i8, ptr %7, i64 32
  %22 = load ptr, ptr %21, align 8, !tbaa !89
  %.not51 = icmp eq ptr %22, null
  br i1 %.not51, label %23, label %30

23:                                               ; preds = %20
  %24 = getelementptr inbounds nuw i8, ptr %0, i64 5036
  %25 = load i32, ptr %24, align 4
  %26 = and i32 %25, 524288
  %.not52 = icmp eq i32 %26, 0
  br i1 %.not52, label %27, label %30

27:                                               ; preds = %23
  %28 = getelementptr inbounds nuw i8, ptr %0, i64 848
  %29 = load i32, ptr %28, align 8, !tbaa !106
  %.not53 = icmp eq i32 %29, 0
  br i1 %.not53, label %44, label %30

30:                                               ; preds = %27, %23, %20, %17
  %31 = getelementptr inbounds nuw i8, ptr %0, i64 5036
  %32 = load i32, ptr %31, align 4
  %33 = and i32 %32, 524288
  %.not54 = icmp eq i32 %33, 0
  br i1 %.not54, label %34, label %37

34:                                               ; preds = %30
  %35 = getelementptr inbounds nuw i8, ptr %0, i64 848
  %36 = load i32, ptr %35, align 8, !tbaa !106
  %.not55 = icmp eq i32 %36, 0
  br i1 %.not55, label %41, label %37

37:                                               ; preds = %34, %30
  %38 = getelementptr inbounds nuw i8, ptr %5, i64 1088
  %39 = tail call i32 (ptr, ptr, ptr, ...) @Curl_pp_sendf(ptr noundef nonnull %0, ptr noundef nonnull %38, ptr noundef nonnull @.str.56, ptr noundef nonnull @.str.15) #7
  %.not56 = icmp eq i32 %39, 0
  br i1 %.not56, label %40, label %44

40:                                               ; preds = %37
  %.val58 = load ptr, ptr %4, align 8, !tbaa !98
  br label %41

41:                                               ; preds = %34, %40
  %.val58.sink = phi ptr [ %.val58, %40 ], [ %5, %34 ]
  %.sink = phi i32 [ 12, %40 ], [ 10, %34 ]
  %42 = getelementptr inbounds nuw i8, ptr %.val58.sink, i64 1328
  store i32 %.sink, ptr %42, align 8, !tbaa !110
  %43 = tail call fastcc i32 @imap_block_statemach(ptr noundef nonnull %0, ptr noundef nonnull %5, i1 noundef zeroext false)
  br label %44

44:                                               ; preds = %37, %9, %41, %27, %14, %10
  %.1 = phi i32 [ %1, %9 ], [ 0, %10 ], [ 0, %14 ], [ %43, %41 ], [ 0, %27 ], [ %39, %37 ]
  %45 = load ptr, ptr @Curl_cfree, align 8, !tbaa !3
  %46 = getelementptr inbounds nuw i8, ptr %7, i64 8
  %47 = load ptr, ptr %46, align 8, !tbaa !81
  tail call void %45(ptr noundef %47) #7
  store ptr null, ptr %46, align 8, !tbaa !81
  %48 = load ptr, ptr @Curl_cfree, align 8, !tbaa !3
  %49 = getelementptr inbounds nuw i8, ptr %7, i64 16
  %50 = load ptr, ptr %49, align 8, !tbaa !86
  tail call void %48(ptr noundef %50) #7
  store ptr null, ptr %49, align 8, !tbaa !86
  %51 = load ptr, ptr @Curl_cfree, align 8, !tbaa !3
  %52 = getelementptr inbounds nuw i8, ptr %7, i64 24
  %53 = load ptr, ptr %52, align 8, !tbaa !88
  tail call void %51(ptr noundef %53) #7
  store ptr null, ptr %52, align 8, !tbaa !88
  %54 = load ptr, ptr @Curl_cfree, align 8, !tbaa !3
  %55 = getelementptr inbounds nuw i8, ptr %7, i64 32
  %56 = load ptr, ptr %55, align 8, !tbaa !89
  tail call void %54(ptr noundef %56) #7
  store ptr null, ptr %55, align 8, !tbaa !89
  %57 = load ptr, ptr @Curl_cfree, align 8, !tbaa !3
  %58 = getelementptr inbounds nuw i8, ptr %7, i64 40
  %59 = load ptr, ptr %58, align 8, !tbaa !90
  tail call void %57(ptr noundef %59) #7
  store ptr null, ptr %58, align 8, !tbaa !90
  %60 = load ptr, ptr @Curl_cfree, align 8, !tbaa !3
  %61 = getelementptr inbounds nuw i8, ptr %7, i64 48
  %62 = load ptr, ptr %61, align 8, !tbaa !91
  tail call void %60(ptr noundef %62) #7
  store ptr null, ptr %61, align 8, !tbaa !91
  %63 = load ptr, ptr @Curl_cfree, align 8, !tbaa !3
  %64 = getelementptr inbounds nuw i8, ptr %7, i64 56
  %65 = load ptr, ptr %64, align 8, !tbaa !111
  tail call void %63(ptr noundef %65) #7
  store ptr null, ptr %64, align 8, !tbaa !111
  %66 = load ptr, ptr @Curl_cfree, align 8, !tbaa !3
  %67 = getelementptr inbounds nuw i8, ptr %7, i64 64
  %68 = load ptr, ptr %67, align 8, !tbaa !94
  tail call void %66(ptr noundef %68) #7
  store ptr null, ptr %67, align 8, !tbaa !94
  %69 = load ptr, ptr @Curl_cfree, align 8, !tbaa !3
  %70 = getelementptr inbounds nuw i8, ptr %7, i64 72
  %71 = load ptr, ptr %70, align 8, !tbaa !96
  tail call void %69(ptr noundef %71) #7
  store ptr null, ptr %70, align 8, !tbaa !96
  store i32 0, ptr %7, align 8, !tbaa !99
  br label %72

72:                                               ; preds = %3, %44
  %.0 = phi i32 [ %.1, %44 ], [ 0, %3 ]
  ret i32 %.0
}